target datalayout = "e-m:e-p270:32:32-p271:32:32-p272:64:64-i64:64-i128:128-f80:128-n8:16:32:64-S128"
target triple = "x86_64-pc-linux-gnu"

; Function Attrs: nounwind uwtable
define double @av_csp_approximate_trc_gamma(i32 noundef %0) #0 {
  %2 = alloca double, align 8
  %3 = alloca i32, align 4
  %4 = alloca double, align 8
  %5 = alloca i32, align 4
  store i32 %0, ptr %3, align 4, !tbaa !4
  call void @llvm.lifetime.start.p0(i64 8, ptr %4) #7
  %6 = load i32, ptr %3, align 4, !tbaa !4
  %7 = icmp uge i32 %6, 19
  br i1 %7, label %8, label %9

8:                                                ; preds = %1
  store double 0.000000e+00, ptr %2, align 8
  store i32 1, ptr %5, align 4
  br label %19

9:                                                ; preds = %1
  %10 = load i32, ptr %3, align 4, !tbaa !4
  %11 = zext i32 %10 to i64
  %12 = getelementptr inbounds nuw [19 x double], ptr @approximate_gamma, i64 0, i64 %11
  %13 = load double, ptr %12, align 8, !tbaa !27
  store double %13, ptr %4, align 8, !tbaa !27
  %14 = load double, ptr %4, align 8, !tbaa !27
  %15 = fcmp nsz ogt double %14, 0.000000e+00
  br i1 %15, label %16, label %18

16:                                               ; preds = %9
  %17 = load double, ptr %4, align 8, !tbaa !27
  store double %17, ptr %2, align 8
  store i32 1, ptr %5, align 4
  br label %19

18:                                               ; preds = %9
  store double 0.000000e+00, ptr %2, align 8
  store i32 1, ptr %5, align 4
  br label %19

19:                                               ; preds = %18, %16, %8
  call void @llvm.lifetime.end.p0(i64 8, ptr %4) #7
  %20 = load double, ptr %2, align 8
  ret double %20
}