; Function Attrs: mustprogress nofree norecurse nosync nounwind willreturn memory(none) uwtable
define double @av_csp_approximate_trc_gamma(i32 noundef %0) local_unnamed_addr #0 {
  %2 = icmp ugt i32 %0, 18
  br i1 %2, label %10, label %3

3:                                                ; preds = %1
  %4 = zext nneg i32 %0 to i64
  %5 = shl nuw nsw i64 1, %4
  %6 = and i64 %5, 193010
  %.not = icmp eq i64 %6, 0
  br i1 %.not, label %10, label %7

7:                                                ; preds = %3
  %8 = getelementptr inbounds nuw [19 x double], ptr @approximate_gamma, i64 0, i64 %4
  %9 = load double, ptr %8, align 8, !tbaa !16
  br label %10

10:                                               ; preds = %3, %1, %7
  %.0 = phi nsz double [ %9, %7 ], [ 0.000000e+00, %1 ], [ 0.000000e+00, %3 ]
  ret double %.0
}